target datalayout = "e-m:e-p270:32:32-p271:32:32-p272:64:64-i64:64-i128:128-f80:128-n8:16:32:64-S128"
target triple = "x86_64-pc-linux-gnu"

%struct._lv_anim_t = type { ptr, ptr, ptr, ptr, ptr, ptr, ptr, ptr, ptr, i32, i32, i32, i32, i32, i32, i32, i32, i32, %union._lv_anim_path_para_t, i32, i32, i32, i8 }
%union._lv_anim_path_para_t = type { %struct.lv_anim_bezier3_para_t }
%struct.lv_anim_bezier3_para_t = type { i16, i16, i16, i16 }

; Function Attrs: nounwind uwtable
define void @lv_obj_fade_in(ptr noundef %0, i32 noundef %1, i32 noundef %2) #0 {
  %4 = alloca ptr, align 8
  %5 = alloca i32, align 4
  %6 = alloca i32, align 4
  %7 = alloca %struct._lv_anim_t, align 8
  store ptr %0, ptr %4, align 8, !tbaa !30
  store i32 %1, ptr %5, align 4, !tbaa !32
  store i32 %2, ptr %6, align 4, !tbaa !32
  call void @llvm.lifetime.start.p0(i64 136, ptr %7) #6
  call void @lv_anim_init(ptr noundef %7)
  %8 = load ptr, ptr %4, align 8, !tbaa !30
  call void @lv_anim_set_var(ptr noundef %7, ptr noundef %8)
  call void @lv_anim_set_values(ptr noundef %7, i32 noundef 0, i32 noundef 255)
  call void @lv_anim_set_exec_cb(ptr noundef %7, ptr noundef @fade_anim_cb)
  call void @lv_anim_set_completed_cb(ptr noundef %7, ptr noundef @fade_in_anim_completed)
  %9 = load i32, ptr %5, align 4, !tbaa !32
  call void @lv_anim_set_duration(ptr noundef %7, i32 noundef %9)
  %10 = load i32, ptr %6, align 4, !tbaa !32
  call void @lv_anim_set_delay(ptr noundef %7, i32 noundef %10)
  %11 = call ptr @lv_anim_start(ptr noundef %7)
  call void @llvm.lifetime.end.p0(i64 136, ptr %7) #6
  ret void
}