; Function Attrs: nounwind uwtable
define void @lv_obj_fade_in(ptr noundef %0, i32 noundef %1, i32 noundef %2) local_unnamed_addr #0 {
  %4 = alloca %struct._lv_anim_t, align 8
  call void @llvm.lifetime.start.p0(i64 136, ptr nonnull %4) #9
  call void @lv_anim_init(ptr noundef nonnull %4) #9
  call void @lv_anim_set_var(ptr noundef nonnull %4, ptr noundef %0) #9
  call void @lv_anim_set_values(ptr noundef nonnull %4, i32 noundef 0, i32 noundef 255) #9
  call void @lv_anim_set_exec_cb(ptr noundef nonnull %4, ptr noundef nonnull @fade_anim_cb) #9
  call void @lv_anim_set_completed_cb(ptr noundef nonnull %4, ptr noundef nonnull @fade_in_anim_completed) #9
  call void @lv_anim_set_duration(ptr noundef nonnull %4, i32 noundef %1) #9
  call void @lv_anim_set_delay(ptr noundef nonnull %4, i32 noundef %2) #9
  %5 = call ptr @lv_anim_start(ptr noundef nonnull %4) #9
  call void @llvm.lifetime.end.p0(i64 136, ptr nonnull %4) #9
  ret void
}